; Function Attrs: mustprogress uwtable
define void @unumf_formatDouble_77(ptr noundef %0, double noundef %1, ptr noundef %2, ptr noundef %3) local_unnamed_addr #1 {
  %5 = load i32, ptr %3, align 4, !tbaa !13
  %6 = icmp slt i32 %5, 1
  br i1 %6, label %7, label %_ZN6icu_7713IcuCApiHelperI16UFormattedNumberNS_6number4impl20UFormattedNumberImplELi1178881536EE8validateEPS1_R10UErrorCode.exit.thread

7:                                                ; preds = %4
  %8 = icmp eq ptr %0, null
  br i1 %8, label %.sink.split.i, label %9

9:                                                ; preds = %7
  %10 = load i32, ptr %0, align 4, !tbaa !51
  %.not9.i = icmp eq i32 %10, 1313231360
  br i1 %.not9.i, label %_ZN6icu_7713IcuCApiHelperI16UNumberFormatterNS_6number4impl20UNumberFormatterDataELi1313231360EE8validateEPKS1_R10UErrorCode.exit, label %.sink.split.i

.sink.split.i:                                    ; preds = %9, %7
  %.sink.i = phi i32 [ 1, %7 ], [ 3, %9 ]
  store i32 %.sink.i, ptr %3, align 4, !tbaa !13
  br label %_ZN6icu_7713IcuCApiHelperI16UFormattedNumberNS_6number4impl20UFormattedNumberImplELi1178881536EE8validateEPS1_R10UErrorCode.exit.thread

_ZN6icu_7713IcuCApiHelperI16UNumberFormatterNS_6number4impl20UNumberFormatterDataELi1313231360EE8validateEPKS1_R10UErrorCode.exit: ; preds = %9
  %11 = icmp eq ptr %2, null
  br i1 %11, label %.sink.split.i.i, label %12

12:                                               ; preds = %_ZN6icu_7713IcuCApiHelperI16UNumberFormatterNS_6number4impl20UNumberFormatterDataELi1313231360EE8validateEPKS1_R10UErrorCode.exit
  %13 = getelementptr inbounds nuw i8, ptr %2, i64 16
  %14 = load i32, ptr %13, align 4, !tbaa !20
  %.not9.i.i = icmp eq i32 %14, 1178881536
  br i1 %.not9.i.i, label %_ZN6icu_7713IcuCApiHelperI16UFormattedNumberNS_6number4impl20UFormattedNumberImplELi1178881536EE8validateEPS1_R10UErrorCode.exit, label %.sink.split.i.i

.sink.split.i.i:                                  ; preds = %12, %_ZN6icu_7713IcuCApiHelperI16UNumberFormatterNS_6number4impl20UNumberFormatterDataELi1313231360EE8validateEPKS1_R10UErrorCode.exit
  %.sink.i.i = phi i32 [ 1, %_ZN6icu_7713IcuCApiHelperI16UNumberFormatterNS_6number4impl20UNumberFormatterDataELi1313231360EE8validateEPKS1_R10UErrorCode.exit ], [ 3, %12 ]
  store i32 %.sink.i.i, ptr %3, align 4, !tbaa !13
  br label %_ZN6icu_7713IcuCApiHelperI16UFormattedNumberNS_6number4impl20UFormattedNumberImplELi1178881536EE8validateEPS1_R10UErrorCode.exit.thread

_ZN6icu_7713IcuCApiHelperI16UFormattedNumberNS_6number4impl20UFormattedNumberImplELi1178881536EE8validateEPS1_R10UErrorCode.exit: ; preds = %12
  %15 = getelementptr inbounds nuw i8, ptr %2, i64 48
  tail call void @_ZN6icu_7731FormattedValueStringBuilderImpl11resetStringEv(ptr noundef nonnull align 8 dereferenceable(300) %15)
  %16 = getelementptr inbounds nuw i8, ptr %2, i64 352
  tail call void @_ZN6icu_776number4impl15DecimalQuantity5clearEv(ptr noundef nonnull align 8 dereferenceable(66) %16)
  %17 = tail call noundef nonnull align 8 dereferenceable(66) ptr @_ZN6icu_776number4impl15DecimalQuantity11setToDoubleEd(ptr noundef nonnull align 8 dereferenceable(66) %16, double noundef %1)
  %18 = getelementptr inbounds nuw i8, ptr %0, i64 8
  tail call void @_ZNK6icu_776number24LocalizedNumberFormatter10formatImplEPNS0_4impl20UFormattedNumberDataER10UErrorCode(ptr noundef nonnull align 8 dereferenceable(496) %18, ptr noundef nonnull %15, ptr noundef nonnull align 4 dereferenceable(4) %3)
  br label %_ZN6icu_7713IcuCApiHelperI16UFormattedNumberNS_6number4impl20UFormattedNumberImplELi1178881536EE8validateEPS1_R10UErrorCode.exit.thread

_ZN6icu_7713IcuCApiHelperI16UFormattedNumberNS_6number4impl20UFormattedNumberImplELi1178881536EE8validateEPS1_R10UErrorCode.exit.thread: ; preds = %.sink.split.i, %4, %.sink.split.i.i, %_ZN6icu_7713IcuCApiHelperI16UFormattedNumberNS_6number4impl20UFormattedNumberImplELi1178881536EE8validateEPS1_R10UErrorCode.exit
  ret void
}